target datalayout = "e-m:e-p270:32:32-p271:32:32-p272:64:64-i64:64-i128:128-f80:128-n8:16:32:64-S128"
target triple = "x86_64-unknown-linux-gnu"

%"class.v8::IndirectHandleBase" = type { ptr }
%"class.node::MemoryRetainer" = type { ptr }
%struct.uv__queue = type { ptr, ptr }
%"class.node::MutexBase" = type { %union.pthread_mutex_t }
%union.pthread_mutex_t = type { %struct.__pthread_mutex_s }
%struct.__pthread_mutex_s = type { i32, i32, i32, i32, i32, i16, i16, %struct.__pthread_internal_list }
%struct.__pthread_internal_list = type { ptr, ptr }
%"class.std::vector.273" = type { %"struct.std::_Vector_base.274" }
%"struct.std::_Vector_base.274" = type { %"struct.std::_Vector_base<unsigned char, std::allocator<unsigned char>>::_Vector_impl" }
%"struct.std::_Vector_base<unsigned char, std::allocator<unsigned char>>::_Vector_impl" = type { %"struct.std::_Vector_base<unsigned char, std::allocator<unsigned char>>::_Vector_impl_data" }
%"struct.std::_Vector_base<unsigned char, std::allocator<unsigned char>>::_Vector_impl_data" = type { ptr, ptr, ptr }
%"class.node::(anonymous namespace)::CompressionStream" = type { %"class.node::AsyncWrap", %"class.node::ThreadPoolWork", i8, i8, i8, i8, i32, ptr, %"struct.std::atomic.271", i64, %"class.node::(anonymous namespace)::ZlibContext" }
%"class.node::AsyncWrap" = type { %"class.node::BaseObject", i32, i8, double, double }
%"class.node::BaseObject" = type { %"class.node::MemoryRetainer", %"class.v8::Global.269", ptr, ptr }
%"class.v8::Global.269" = type { %"class.v8::PersistentBase.270" }
%"class.v8::PersistentBase.270" = type { %"class.v8::IndirectHandleBase" }
%"class.node::ThreadPoolWork" = type { ptr, ptr, %struct.uv_work_s, ptr }
%struct.uv_work_s = type { ptr, i32, [6 x ptr], ptr, ptr, ptr, %struct.uv__work }
%struct.uv__work = type { ptr, ptr, ptr, %struct.uv__queue }
%"struct.std::atomic.271" = type { %"struct.std::__atomic_base.272" }
%"struct.std::__atomic_base.272" = type { i64 }
%"class.node::(anonymous namespace)::ZlibContext" = type { %"class.node::MemoryRetainer", %"class.node::MutexBase", i8, i32, i32, i32, i32, i32, i32, i32, i32, %"class.std::vector.273", %struct.z_stream_s }
%struct.z_stream_s = type { ptr, i32, i64, ptr, i32, i64, ptr, ptr, ptr, ptr, ptr, i32, i64, i64 }

; Function Attrs: mustprogress nounwind uwtable
define internal void @_ZN4node12_GLOBAL__N_117CompressionStreamINS0_11ZlibContextEE11FreeForZlibEPvS4_(ptr noundef %data, ptr noundef %pointer) #4 align 2 {
entry:
  %this.addr.i = alloca ptr, align 8
  %__i.addr.i = alloca i64, align 8
  %__m.addr.i = alloca i32, align 4
  %.atomictmp.i = alloca i64, align 8
  %atomic-temp.i = alloca i64, align 8
  %data.addr = alloca ptr, align 8
  %pointer.addr = alloca ptr, align 8
  %ctx = alloca ptr, align 8
  %real_pointer = alloca ptr, align 8
  %real_size = alloca i64, align 8
  store ptr %data, ptr %data.addr, align 8
  store ptr %pointer, ptr %pointer.addr, align 8
  %0 = load ptr, ptr %pointer.addr, align 8
  %cmp = icmp eq ptr %0, null
  %lnot = xor i1 %cmp, true
  %lnot1 = xor i1 %lnot, true
  br i1 %lnot1, label %if.then, label %if.end

if.then:                                          ; preds = %entry
  br label %return

if.end:                                           ; preds = %entry
  %1 = load ptr, ptr %data.addr, align 8
  store ptr %1, ptr %ctx, align 8
  %2 = load ptr, ptr %pointer.addr, align 8
  %add.ptr = getelementptr inbounds i8, ptr %2, i64 -8
  store ptr %add.ptr, ptr %real_pointer, align 8
  %3 = load ptr, ptr %real_pointer, align 8
  %4 = load i64, ptr %3, align 8
  store i64 %4, ptr %real_size, align 8
  %5 = load ptr, ptr %ctx, align 8
  %unreported_allocations_ = getelementptr inbounds %"class.node::(anonymous namespace)::CompressionStream", ptr %5, i32 0, i32 8
  %6 = load i64, ptr %real_size, align 8
  store ptr %unreported_allocations_, ptr %this.addr.i, align 8
  store i64 %6, ptr %__i.addr.i, align 8
  store i32 0, ptr %__m.addr.i, align 4
  %this1.i = load ptr, ptr %this.addr.i, align 8
  %7 = load i32, ptr %__m.addr.i, align 4
  %8 = load i64, ptr %__i.addr.i, align 8
  store i64 %8, ptr %.atomictmp.i, align 8
  switch i32 %7, label %monotonic.i [
    i32 1, label %acquire.i
    i32 2, label %acquire.i
    i32 3, label %release.i
    i32 4, label %acqrel.i
    i32 5, label %seqcst.i
  ]

monotonic.i:                                      ; preds = %if.end
  %9 = load i64, ptr %.atomictmp.i, align 8
  %10 = atomicrmw sub ptr %this1.i, i64 %9 monotonic, align 8
  store i64 %10, ptr %atomic-temp.i, align 8
  br label %_ZNSt13__atomic_baseIlE9fetch_subElSt12memory_order.exit

acquire.i:                                        ; preds = %if.end, %if.end
  %11 = load i64, ptr %.atomictmp.i, align 8
  %12 = atomicrmw sub ptr %this1.i, i64 %11 acquire, align 8
  store i64 %12, ptr %atomic-temp.i, align 8
  br label %_ZNSt13__atomic_baseIlE9fetch_subElSt12memory_order.exit

release.i:                                        ; preds = %if.end
  %13 = load i64, ptr %.atomictmp.i, align 8
  %14 = atomicrmw sub ptr %this1.i, i64 %13 release, align 8
  store i64 %14, ptr %atomic-temp.i, align 8
  br label %_ZNSt13__atomic_baseIlE9fetch_subElSt12memory_order.exit

acqrel.i:                                         ; preds = %if.end
  %15 = load i64, ptr %.atomictmp.i, align 8
  %16 = atomicrmw sub ptr %this1.i, i64 %15 acq_rel, align 8
  store i64 %16, ptr %atomic-temp.i, align 8
  br label %_ZNSt13__atomic_baseIlE9fetch_subElSt12memory_order.exit

seqcst.i:                                         ; preds = %if.end
  %17 = load i64, ptr %.atomictmp.i, align 8
  %18 = atomicrmw sub ptr %this1.i, i64 %17 seq_cst, align 8
  store i64 %18, ptr %atomic-temp.i, align 8
  br label %_ZNSt13__atomic_baseIlE9fetch_subElSt12memory_order.exit

_ZNSt13__atomic_baseIlE9fetch_subElSt12memory_order.exit: ; preds = %seqcst.i, %acqrel.i, %release.i, %acquire.i, %monotonic.i
  %19 = load ptr, ptr %real_pointer, align 8
  call void @free(ptr noundef %19) #3
  br label %return

return:                                           ; preds = %_ZNSt13__atomic_baseIlE9fetch_subElSt12memory_order.exit, %if.then
  ret void
}